target datalayout = "e-m:e-p270:32:32-p271:32:32-p272:64:64-i64:64-i128:128-f80:128-n8:16:32:64-S128"
target triple = "x86_64-pc-linux-gnu"

%struct.CodedBitstreamFragment = type { ptr, i64, i64, ptr, i32, i32, ptr }
%struct.CodedBitstreamUnit = type { i32, ptr, i64, i64, ptr, ptr, ptr }
%struct.AVBufferRef = type { ptr, ptr, i64 }

@.str.8 = private unnamed_addr constant [30 x i8] c"Assertion %s failed at %s:%d\0A\00", align 1
@.str.10 = private unnamed_addr constant [21 x i8] c"libavcodec/cbs_av1.c\00", align 1
@.str.345 = private unnamed_addr constant [12 x i8] c"pos == size\00", align 1

; Function Attrs: nounwind uwtable
define internal i32 @cbs_av1_assemble_fragment(ptr noundef %0, ptr noundef %1) #0 {
  %3 = alloca i32, align 4
  %4 = alloca ptr, align 8
  %5 = alloca ptr, align 8
  %6 = alloca i64, align 8
  %7 = alloca i64, align 8
  %8 = alloca i32, align 4
  %9 = alloca i32, align 4
  store ptr %0, ptr %4, align 8, !tbaa !4
  store ptr %1, ptr %5, align 8, !tbaa !9
  call void @llvm.lifetime.start.p0(i64 8, ptr %6) #8
  call void @llvm.lifetime.start.p0(i64 8, ptr %7) #8
  call void @llvm.lifetime.start.p0(i64 4, ptr %8) #8
  store i64 0, ptr %6, align 8, !tbaa !25
  store i32 0, ptr %8, align 4, !tbaa !11
  br label %10

10:                                               ; preds = %27, %2
  %11 = load i32, ptr %8, align 4, !tbaa !11
  %12 = load ptr, ptr %5, align 8, !tbaa !9
  %13 = getelementptr inbounds nuw %struct.CodedBitstreamFragment, ptr %12, i32 0, i32 4
  %14 = load i32, ptr %13, align 8, !tbaa !88
  %15 = icmp slt i32 %11, %14
  br i1 %15, label %16, label %30

16:                                               ; preds = %10
  %17 = load ptr, ptr %5, align 8, !tbaa !9
  %18 = getelementptr inbounds nuw %struct.CodedBitstreamFragment, ptr %17, i32 0, i32 6
  %19 = load ptr, ptr %18, align 8, !tbaa !89
  %20 = load i32, ptr %8, align 4, !tbaa !11
  %21 = sext i32 %20 to i64
  %22 = getelementptr inbounds %struct.CodedBitstreamUnit, ptr %19, i64 %21
  %23 = getelementptr inbounds nuw %struct.CodedBitstreamUnit, ptr %22, i32 0, i32 2
  %24 = load i64, ptr %23, align 8, !tbaa !44
  %25 = load i64, ptr %6, align 8, !tbaa !25
  %26 = add i64 %25, %24
  store i64 %26, ptr %6, align 8, !tbaa !25
  br label %27

27:                                               ; preds = %16
  %28 = load i32, ptr %8, align 4, !tbaa !11
  %29 = add nsw i32 %28, 1
  store i32 %29, ptr %8, align 4, !tbaa !11
  br label %10, !llvm.loop !90

30:                                               ; preds = %10
  %31 = load i64, ptr %6, align 8, !tbaa !25
  %32 = add i64 %31, 64
  %33 = call ptr @av_buffer_alloc(i64 noundef %32)
  %34 = load ptr, ptr %5, align 8, !tbaa !9
  %35 = getelementptr inbounds nuw %struct.CodedBitstreamFragment, ptr %34, i32 0, i32 3
  store ptr %33, ptr %35, align 8, !tbaa !32
  %36 = load ptr, ptr %5, align 8, !tbaa !9
  %37 = getelementptr inbounds nuw %struct.CodedBitstreamFragment, ptr %36, i32 0, i32 3
  %38 = load ptr, ptr %37, align 8, !tbaa !32
  %39 = icmp ne ptr %38, null
  br i1 %39, label %41, label %40

40:                                               ; preds = %30
  store i32 -12, ptr %3, align 4
  store i32 1, ptr %9, align 4
  br label %107

41:                                               ; preds = %30
  %42 = load ptr, ptr %5, align 8, !tbaa !9
  %43 = getelementptr inbounds nuw %struct.CodedBitstreamFragment, ptr %42, i32 0, i32 3
  %44 = load ptr, ptr %43, align 8, !tbaa !32
  %45 = getelementptr inbounds nuw %struct.AVBufferRef, ptr %44, i32 0, i32 1
  %46 = load ptr, ptr %45, align 8, !tbaa !91
  %47 = load ptr, ptr %5, align 8, !tbaa !9
  %48 = getelementptr inbounds nuw %struct.CodedBitstreamFragment, ptr %47, i32 0, i32 0
  store ptr %46, ptr %48, align 8, !tbaa !19
  %49 = load ptr, ptr %5, align 8, !tbaa !9
  %50 = getelementptr inbounds nuw %struct.CodedBitstreamFragment, ptr %49, i32 0, i32 0
  %51 = load ptr, ptr %50, align 8, !tbaa !19
  %52 = load i64, ptr %6, align 8, !tbaa !25
  %53 = getelementptr inbounds nuw i8, ptr %51, i64 %52
  call void @llvm.memset.p0.i64(ptr align 1 %53, i8 0, i64 64, i1 false)
  store i64 0, ptr %7, align 8, !tbaa !25
  store i32 0, ptr %8, align 4, !tbaa !11
  br label %54

54:                                               ; preds = %92, %41
  %55 = load i32, ptr %8, align 4, !tbaa !11
  %56 = load ptr, ptr %5, align 8, !tbaa !9
  %57 = getelementptr inbounds nuw %struct.CodedBitstreamFragment, ptr %56, i32 0, i32 4
  %58 = load i32, ptr %57, align 8, !tbaa !88
  %59 = icmp slt i32 %55, %58
  br i1 %59, label %60, label %95

60:                                               ; preds = %54
  %61 = load ptr, ptr %5, align 8, !tbaa !9
  %62 = getelementptr inbounds nuw %struct.CodedBitstreamFragment, ptr %61, i32 0, i32 0
  %63 = load ptr, ptr %62, align 8, !tbaa !19
  %64 = load i64, ptr %7, align 8, !tbaa !25
  %65 = getelementptr inbounds nuw i8, ptr %63, i64 %64
  %66 = load ptr, ptr %5, align 8, !tbaa !9
  %67 = getelementptr inbounds nuw %struct.CodedBitstreamFragment, ptr %66, i32 0, i32 6
  %68 = load ptr, ptr %67, align 8, !tbaa !89
  %69 = load i32, ptr %8, align 4, !tbaa !11
  %70 = sext i32 %69 to i64
  %71 = getelementptr inbounds %struct.CodedBitstreamUnit, ptr %68, i64 %70
  %72 = getelementptr inbounds nuw %struct.CodedBitstreamUnit, ptr %71, i32 0, i32 1
  %73 = load ptr, ptr %72, align 8, !tbaa !43
  %74 = load ptr, ptr %5, align 8, !tbaa !9
  %75 = getelementptr inbounds nuw %struct.CodedBitstreamFragment, ptr %74, i32 0, i32 6
  %76 = load ptr, ptr %75, align 8, !tbaa !89
  %77 = load i32, ptr %8, align 4, !tbaa !11
  %78 = sext i32 %77 to i64
  %79 = getelementptr inbounds %struct.CodedBitstreamUnit, ptr %76, i64 %78
  %80 = getelementptr inbounds nuw %struct.CodedBitstreamUnit, ptr %79, i32 0, i32 2
  %81 = load i64, ptr %80, align 8, !tbaa !44
  call void @llvm.memcpy.p0.p0.i64(ptr align 1 %65, ptr align 1 %73, i64 %81, i1 false)
  %82 = load ptr, ptr %5, align 8, !tbaa !9
  %83 = getelementptr inbounds nuw %struct.CodedBitstreamFragment, ptr %82, i32 0, i32 6
  %84 = load ptr, ptr %83, align 8, !tbaa !89
  %85 = load i32, ptr %8, align 4, !tbaa !11
  %86 = sext i32 %85 to i64
  %87 = getelementptr inbounds %struct.CodedBitstreamUnit, ptr %84, i64 %86
  %88 = getelementptr inbounds nuw %struct.CodedBitstreamUnit, ptr %87, i32 0, i32 2
  %89 = load i64, ptr %88, align 8, !tbaa !44
  %90 = load i64, ptr %7, align 8, !tbaa !25
  %91 = add i64 %90, %89
  store i64 %91, ptr %7, align 8, !tbaa !25
  br label %92

92:                                               ; preds = %60
  %93 = load i32, ptr %8, align 4, !tbaa !11
  %94 = add nsw i32 %93, 1
  store i32 %94, ptr %8, align 4, !tbaa !11
  br label %54, !llvm.loop !94

95:                                               ; preds = %54
  br label %96

96:                                               ; preds = %95
  %97 = load i64, ptr %7, align 8, !tbaa !25
  %98 = load i64, ptr %6, align 8, !tbaa !25
  %99 = icmp eq i64 %97, %98
  br i1 %99, label %101, label %100

100:                                              ; preds = %96
  call void (ptr, i32, ptr, ...) @av_log(ptr noundef null, i32 noundef 0, ptr noundef @.str.8, ptr noundef @.str.345, ptr noundef @.str.10, i32 noundef 1259)
  call void @abort() #9
  unreachable

101:                                              ; preds = %96
  br label %102

102:                                              ; preds = %101
  br label %103

103:                                              ; preds = %102
  %104 = load i64, ptr %6, align 8, !tbaa !25
  %105 = load ptr, ptr %5, align 8, !tbaa !9
  %106 = getelementptr inbounds nuw %struct.CodedBitstreamFragment, ptr %105, i32 0, i32 1
  store i64 %104, ptr %106, align 8, !tbaa !24
  store i32 0, ptr %3, align 4
  store i32 1, ptr %9, align 4
  br label %107

107:                                              ; preds = %103, %40
  call void @llvm.lifetime.end.p0(i64 4, ptr %8) #8
  call void @llvm.lifetime.end.p0(i64 8, ptr %7) #8
  call void @llvm.lifetime.end.p0(i64 8, ptr %6) #8
  %108 = load i32, ptr %3, align 4
  ret i32 %108
}