; Function Attrs: nounwind uwtable
define internal range(i32 -12, 1) i32 @cbs_av1_assemble_fragment(ptr readnone captures(none) %0, ptr noundef captures(none) %1) #0 {
  %3 = getelementptr inbounds nuw i8, ptr %1, i64 32
  %4 = load i32, ptr %3, align 8, !tbaa !196
  %5 = icmp sgt i32 %4, 0
  br i1 %5, label %.lr.ph, label %._crit_edge

.lr.ph:                                           ; preds = %2
  %6 = getelementptr inbounds nuw i8, ptr %1, i64 40
  %7 = load ptr, ptr %6, align 8, !tbaa !197
  %wide.trip.count = zext nneg i32 %4 to i64
  br label %8

8:                                                ; preds = %.lr.ph, %8
  %indvars.iv = phi i64 [ 0, %.lr.ph ], [ %indvars.iv.next, %8 ]
  %.03033 = phi i64 [ 0, %.lr.ph ], [ %11, %8 ]
  %9 = getelementptr inbounds nuw %struct.CodedBitstreamUnit, ptr %7, i64 %indvars.iv, i32 2
  %10 = load i64, ptr %9, align 8, !tbaa !37
  %11 = add i64 %10, %.03033
  %indvars.iv.next = add nuw nsw i64 %indvars.iv, 1
  %exitcond.not = icmp eq i64 %indvars.iv.next, %wide.trip.count
  br i1 %exitcond.not, label %._crit_edge, label %8, !llvm.loop !198

._crit_edge:                                      ; preds = %8, %2
  %.030.lcssa = phi i64 [ 0, %2 ], [ %11, %8 ]
  %12 = add i64 %.030.lcssa, 64
  %13 = tail call ptr @av_buffer_alloc(i64 noundef %12) #8
  %14 = getelementptr inbounds nuw i8, ptr %1, i64 24
  store ptr %13, ptr %14, align 8, !tbaa !32
  %.not = icmp eq ptr %13, null
  br i1 %.not, label %42, label %15

15:                                               ; preds = %._crit_edge
  %16 = getelementptr inbounds nuw i8, ptr %13, i64 8
  %17 = load ptr, ptr %16, align 8, !tbaa !199
  store ptr %17, ptr %1, align 8, !tbaa !14
  %18 = getelementptr inbounds nuw i8, ptr %17, i64 %.030.lcssa
  tail call void @llvm.memset.p0.i64(ptr noundef nonnull align 1 dereferenceable(64) %18, i8 0, i64 64, i1 false)
  %19 = load i32, ptr %3, align 8, !tbaa !196
  %20 = icmp sgt i32 %19, 0
  br i1 %20, label %.lr.ph38, label %._crit_edge39

.lr.ph38:                                         ; preds = %15
  %21 = getelementptr inbounds nuw i8, ptr %1, i64 40
  %.pre = load ptr, ptr %21, align 8, !tbaa !197
  br label %22

22:                                               ; preds = %.lr.ph38, %22
  %23 = phi ptr [ %.pre, %.lr.ph38 ], [ %31, %22 ]
  %indvars.iv43 = phi i64 [ 0, %.lr.ph38 ], [ %indvars.iv.next44, %22 ]
  %.02935 = phi i64 [ 0, %.lr.ph38 ], [ %34, %22 ]
  %24 = load ptr, ptr %1, align 8, !tbaa !14
  %25 = getelementptr inbounds nuw i8, ptr %24, i64 %.02935
  %26 = getelementptr inbounds nuw %struct.CodedBitstreamUnit, ptr %23, i64 %indvars.iv43
  %27 = getelementptr inbounds nuw i8, ptr %26, i64 8
  %28 = load ptr, ptr %27, align 8, !tbaa !36
  %29 = getelementptr inbounds nuw i8, ptr %26, i64 16
  %30 = load i64, ptr %29, align 8, !tbaa !37
  tail call void @llvm.memcpy.p0.p0.i64(ptr align 1 %25, ptr align 1 %28, i64 %30, i1 false)
  %31 = load ptr, ptr %21, align 8, !tbaa !197
  %32 = getelementptr inbounds nuw %struct.CodedBitstreamUnit, ptr %31, i64 %indvars.iv43, i32 2
  %33 = load i64, ptr %32, align 8, !tbaa !37
  %34 = add i64 %33, %.02935
  %indvars.iv.next44 = add nuw nsw i64 %indvars.iv43, 1
  %35 = load i32, ptr %3, align 8, !tbaa !196
  %36 = sext i32 %35 to i64
  %37 = icmp slt i64 %indvars.iv.next44, %36
  br i1 %37, label %22, label %._crit_edge39, !llvm.loop !202

._crit_edge39:                                    ; preds = %22, %15
  %.029.lcssa = phi i64 [ 0, %15 ], [ %34, %22 ]
  %38 = icmp eq i64 %.029.lcssa, %.030.lcssa
  br i1 %38, label %40, label %39

39:                                               ; preds = %._crit_edge39
  tail call void (ptr, i32, ptr, ...) @av_log(ptr noundef null, i32 noundef 0, ptr noundef nonnull @.str.8, ptr noundef nonnull @.str.345, ptr noundef nonnull @.str.10, i32 noundef 1259) #8
  tail call void @abort() #9
  unreachable

40:                                               ; preds = %._crit_edge39
  %41 = getelementptr inbounds nuw i8, ptr %1, i64 8
  store i64 %.030.lcssa, ptr %41, align 8, !tbaa !18
  br label %42

42:                                               ; preds = %._crit_edge, %40
  %.031 = phi i32 [ 0, %40 ], [ -12, %._crit_edge ]
  ret i32 %.031
}